; Function Attrs: nounwind uwtable
define void @Cgt_ManDetectCandidates_rec(ptr noundef %0, ptr noundef %1, ptr noundef %2, i32 noundef %3, ptr noundef %4) local_unnamed_addr #0 {
  %6 = getelementptr i8, ptr %0, i64 312
  %.val = load i32, ptr %6, align 8, !tbaa !3
  %7 = getelementptr i8, ptr %2, i64 32
  %.val24 = load i32, ptr %7, align 8, !tbaa !21
  %.not = icmp eq i32 %.val24, %.val
  br i1 %.not, label %66, label %8

8:                                                ; preds = %5
  store i32 %.val, ptr %7, align 8, !tbaa !21
  %9 = getelementptr i8, ptr %2, i64 24
  %.val26 = load i64, ptr %9, align 8
  %10 = trunc i64 %.val26 to i32
  %11 = and i32 %10, 7
  %12 = add nsw i32 %11, -7
  %narrow.i = icmp ult i32 %12, -2
  br i1 %narrow.i, label %22, label %13

13:                                               ; preds = %8
  %14 = getelementptr i8, ptr %2, i64 8
  %.val27 = load ptr, ptr %14, align 8, !tbaa !22
  %15 = ptrtoint ptr %.val27 to i64
  %16 = and i64 %15, -2
  %17 = inttoptr i64 %16 to ptr
  tail call void @Cgt_ManDetectCandidates_rec(ptr noundef nonnull %0, ptr noundef %1, ptr noundef %17, i32 noundef %3, ptr noundef %4)
  %18 = getelementptr i8, ptr %2, i64 16
  %.val28 = load ptr, ptr %18, align 8, !tbaa !23
  %19 = ptrtoint ptr %.val28 to i64
  %20 = and i64 %19, -2
  %21 = inttoptr i64 %20 to ptr
  tail call void @Cgt_ManDetectCandidates_rec(ptr noundef nonnull %0, ptr noundef %1, ptr noundef %21, i32 noundef %3, ptr noundef %4)
  %.val29.pre = load i64, ptr %9, align 8
  br label %22

22:                                               ; preds = %13, %8
  %.val29 = phi i64 [ %.val29.pre, %13 ], [ %.val26, %8 ]
  %23 = lshr i64 %.val29, 32
  %24 = trunc nuw i64 %23 to i32
  %25 = and i32 %24, 16777215
  %.not22 = icmp sgt i32 %25, %3
  br i1 %.not22, label %66, label %26

26:                                               ; preds = %22
  %27 = icmp eq ptr %1, null
  br i1 %27, label %34, label %28

28:                                               ; preds = %26
  %29 = getelementptr i8, ptr %2, i64 36
  %.val30 = load i32, ptr %29, align 4, !tbaa !24
  %30 = getelementptr i8, ptr %1, i64 8
  %.val31 = load ptr, ptr %30, align 8, !tbaa !25
  %31 = sext i32 %.val30 to i64
  %32 = getelementptr inbounds i32, ptr %.val31, i64 %31
  %33 = load i32, ptr %32, align 4, !tbaa !27
  %.not23 = icmp eq i32 %33, 0
  br i1 %.not23, label %66, label %34

34:                                               ; preds = %28, %26
  %35 = getelementptr inbounds nuw i8, ptr %4, i64 4
  %36 = load i32, ptr %35, align 4, !tbaa !28
  %37 = load i32, ptr %4, align 8, !tbaa !30
  %38 = icmp eq i32 %36, %37
  br i1 %38, label %39, label %.Vec_PtrGrow.exit11_crit_edge.i

.Vec_PtrGrow.exit11_crit_edge.i:                  ; preds = %34
  %.phi.trans.insert.i = getelementptr inbounds nuw i8, ptr %4, i64 8
  %.pre.i = load ptr, ptr %.phi.trans.insert.i, align 8, !tbaa !31
  br label %Vec_PtrPush.exit

39:                                               ; preds = %34
  %40 = icmp slt i32 %36, 16
  br i1 %40, label %41, label %49

41:                                               ; preds = %39
  %42 = getelementptr inbounds nuw i8, ptr %4, i64 8
  %43 = load ptr, ptr %42, align 8, !tbaa !31
  %.not9.i.i = icmp eq ptr %43, null
  br i1 %.not9.i.i, label %46, label %44

44:                                               ; preds = %41
  %45 = tail call dereferenceable_or_null(128) ptr @realloc(ptr noundef nonnull %43, i64 noundef 128) #11
  br label %Vec_PtrGrow.exit.i

46:                                               ; preds = %41
  %47 = tail call noalias dereferenceable_or_null(128) ptr @malloc(i64 noundef 128) #12
  br label %Vec_PtrGrow.exit.i

Vec_PtrGrow.exit.i:                               ; preds = %46, %44
  %48 = phi ptr [ %45, %44 ], [ %47, %46 ]
  store ptr %48, ptr %42, align 8, !tbaa !31
  store i32 16, ptr %4, align 8, !tbaa !30
  br label %Vec_PtrPush.exit

49:                                               ; preds = %39
  %50 = shl nuw nsw i32 %36, 1
  %51 = getelementptr inbounds nuw i8, ptr %4, i64 8
  %52 = load ptr, ptr %51, align 8, !tbaa !31
  %.not9.i10.i = icmp eq ptr %52, null
  %53 = zext nneg i32 %50 to i64
  %54 = shl nuw nsw i64 %53, 3
  br i1 %.not9.i10.i, label %57, label %55

55:                                               ; preds = %49
  %56 = tail call ptr @realloc(ptr noundef nonnull %52, i64 noundef %54) #11
  br label %59

57:                                               ; preds = %49
  %58 = tail call noalias ptr @malloc(i64 noundef %54) #12
  br label %59

59:                                               ; preds = %57, %55
  %60 = phi ptr [ %56, %55 ], [ %58, %57 ]
  store ptr %60, ptr %51, align 8, !tbaa !31
  store i32 %50, ptr %4, align 8, !tbaa !30
  br label %Vec_PtrPush.exit

Vec_PtrPush.exit:                                 ; preds = %.Vec_PtrGrow.exit11_crit_edge.i, %Vec_PtrGrow.exit.i, %59
  %61 = phi ptr [ %.pre.i, %.Vec_PtrGrow.exit11_crit_edge.i ], [ %60, %59 ], [ %48, %Vec_PtrGrow.exit.i ]
  %62 = load i32, ptr %35, align 4, !tbaa !28
  %63 = add nsw i32 %62, 1
  store i32 %63, ptr %35, align 4, !tbaa !28
  %64 = sext i32 %62 to i64
  %65 = getelementptr inbounds ptr, ptr %61, i64 %64
  store ptr %2, ptr %65, align 8, !tbaa !32
  br label %66

66:                                               ; preds = %5, %Vec_PtrPush.exit, %28, %22
  ret void
}